target datalayout = "e-m:e-p270:32:32-p271:32:32-p272:64:64-i64:64-i128:128-f80:128-n8:16:32:64-S128"
target triple = "x86_64-pc-linux-gnu"

%struct.b2ShapeId = type { i32, i16, i16 }
%struct.b2Vec2 = type { float, float }
%struct.b2Transform = type { %struct.b2Vec2, %struct.b2Rot }
%struct.b2Rot = type { float, float }
%struct.b2ChainShapeArray = type { ptr, i32, i32 }
%struct.b2ShapeArray = type { ptr, i32, i32 }
%struct.b2Filter = type { i64, i64, i32 }
%struct.b2Shape = type { i32, i32, i32, i32, i32, i32, float, float, float, float, float, i32, %struct.b2AABB, %struct.b2AABB, %struct.b2Vec2, i32, %struct.b2Filter, ptr, i32, %union.anon.0, i16, i8, i8, i8, i8 }
%struct.b2AABB = type { %struct.b2Vec2, %struct.b2Vec2 }
%union.anon.0 = type { %struct.b2Polygon }
%struct.b2Polygon = type { [8 x %struct.b2Vec2], [8 x %struct.b2Vec2], %struct.b2Vec2, float, i32 }
%struct.b2World = type { %struct.b2ArenaAllocator, %struct.b2BroadPhase, %struct.b2ConstraintGraph, %struct.b2IdPool, %struct.b2BodyArray, %struct.b2IdPool, %struct.b2SolverSetArray, %struct.b2IdPool, %struct.b2JointArray, %struct.b2IdPool, %struct.b2ContactArray, %struct.b2IdPool, %struct.b2IslandArray, %struct.b2IdPool, %struct.b2IdPool, %struct.b2ShapeArray, %struct.b2ChainShapeArray, %struct.b2SensorArray, %struct.b2TaskContextArray, %struct.b2SensorTaskContextArray, %struct.b2BodyMoveEventArray, %struct.b2SensorBeginTouchEventArray, %struct.b2ContactBeginTouchEventArray, [2 x %struct.b2SensorEndTouchEventArray], [2 x %struct.b2ContactEndTouchEventArray], i32, %struct.b2ContactHitEventArray, %struct.b2BitSet, %struct.b2BitSet, %struct.b2BitSet, i64, i32, %struct.b2Vec2, float, float, float, float, float, float, float, float, ptr, ptr, i16, %struct.b2Profile, ptr, ptr, ptr, ptr, i32, ptr, ptr, ptr, ptr, ptr, float, i32, i32, i16, i8, i8, i8, i8, i8, i8 }
%struct.b2ArenaAllocator = type { ptr, i32, i32, i32, i32, %struct.b2ArenaEntryArray }
%struct.b2ArenaEntryArray = type { ptr, i32, i32 }
%struct.b2BroadPhase = type { [3 x %struct.b2DynamicTree], i32, %struct.b2HashSet, %struct.b2IntArray, ptr, ptr, i32, %struct.b2AtomicInt, %struct.b2HashSet }
%struct.b2DynamicTree = type { ptr, i32, i32, i32, i32, i32, ptr, ptr, ptr, ptr, i32 }
%struct.b2IntArray = type { ptr, i32, i32 }
%struct.b2AtomicInt = type { i32 }
%struct.b2HashSet = type { ptr, i32, i32 }
%struct.b2ConstraintGraph = type { [12 x %struct.b2GraphColor] }
%struct.b2GraphColor = type { %struct.b2BitSet, %struct.b2ContactSimArray, %struct.b2JointSimArray, %union.anon }
%struct.b2ContactSimArray = type { ptr, i32, i32 }
%struct.b2JointSimArray = type { ptr, i32, i32 }
%union.anon = type { ptr }
%struct.b2BodyArray = type { ptr, i32, i32 }
%struct.b2SolverSetArray = type { ptr, i32, i32 }
%struct.b2JointArray = type { ptr, i32, i32 }
%struct.b2ContactArray = type { ptr, i32, i32 }
%struct.b2IslandArray = type { ptr, i32, i32 }
%struct.b2IdPool = type { %struct.b2IntArray, i32 }
%struct.b2SensorArray = type { ptr, i32, i32 }
%struct.b2TaskContextArray = type { ptr, i32, i32 }
%struct.b2SensorTaskContextArray = type { ptr, i32, i32 }
%struct.b2BodyMoveEventArray = type { ptr, i32, i32 }
%struct.b2SensorBeginTouchEventArray = type { ptr, i32, i32 }
%struct.b2ContactBeginTouchEventArray = type { ptr, i32, i32 }
%struct.b2SensorEndTouchEventArray = type { ptr, i32, i32 }
%struct.b2ContactEndTouchEventArray = type { ptr, i32, i32 }
%struct.b2ContactHitEventArray = type { ptr, i32, i32 }
%struct.b2BitSet = type { ptr, i32, i32 }
%struct.b2Profile = type { float, float, float, float, float, float, float, float, float, float, float, float, float, float, float, float, float, float, float, float, float, float }

; Function Attrs: inlinehint nounwind uwtable
define internal ptr @b2ShapeArray_Get(ptr noundef %0, i32 noundef %1) #7 {
  %3 = alloca ptr, align 8
  %4 = alloca i32, align 4
  store ptr %0, ptr %3, align 8, !tbaa !12
  store i32 %1, ptr %4, align 4, !tbaa !3
  %5 = load ptr, ptr %3, align 8, !tbaa !12
  %6 = getelementptr inbounds nuw %struct.b2ShapeArray, ptr %5, i32 0, i32 0
  %7 = load ptr, ptr %6, align 8, !tbaa !14
  %8 = load i32, ptr %4, align 4, !tbaa !3
  %9 = sext i32 %8 to i64
  %10 = getelementptr inbounds %struct.b2Shape, ptr %7, i64 %9
  ret ptr %10
}

; Function Attrs: inlinehint nounwind uwtable
define internal <2 x float> @b2InvTransformPoint(<2 x float> %0, <2 x float> %1, <2 x float> %2) #5 {
  %4 = alloca %struct.b2Vec2, align 4
  %5 = alloca %struct.b2Transform, align 4
  %6 = alloca %struct.b2Vec2, align 4
  %7 = alloca float, align 4
  %8 = alloca float, align 4
  %9 = getelementptr inbounds nuw { <2 x float>, <2 x float> }, ptr %5, i32 0, i32 0
  store <2 x float> %0, ptr %9, align 4
  %10 = getelementptr inbounds nuw { <2 x float>, <2 x float> }, ptr %5, i32 0, i32 1
  store <2 x float> %1, ptr %10, align 4
  store <2 x float> %2, ptr %6, align 4
  call void @llvm.lifetime.start.p0(i64 4, ptr %7) #9
  %11 = getelementptr inbounds nuw %struct.b2Vec2, ptr %6, i32 0, i32 0
  %12 = load float, ptr %11, align 4, !tbaa !55
  %13 = getelementptr inbounds nuw %struct.b2Transform, ptr %5, i32 0, i32 0
  %14 = getelementptr inbounds nuw %struct.b2Vec2, ptr %13, i32 0, i32 0
  %15 = load float, ptr %14, align 4, !tbaa !247
  %16 = fsub float %12, %15
  store float %16, ptr %7, align 4, !tbaa !50
  call void @llvm.lifetime.start.p0(i64 4, ptr %8) #9
  %17 = getelementptr inbounds nuw %struct.b2Vec2, ptr %6, i32 0, i32 1
  %18 = load float, ptr %17, align 4, !tbaa !56
  %19 = getelementptr inbounds nuw %struct.b2Transform, ptr %5, i32 0, i32 0
  %20 = getelementptr inbounds nuw %struct.b2Vec2, ptr %19, i32 0, i32 1
  %21 = load float, ptr %20, align 4, !tbaa !250
  %22 = fsub float %18, %21
  store float %22, ptr %8, align 4, !tbaa !50
  %23 = getelementptr inbounds nuw %struct.b2Vec2, ptr %4, i32 0, i32 0
  %24 = getelementptr inbounds nuw %struct.b2Transform, ptr %5, i32 0, i32 1
  %25 = getelementptr inbounds nuw %struct.b2Rot, ptr %24, i32 0, i32 0
  %26 = load float, ptr %25, align 4, !tbaa !251
  %27 = load float, ptr %7, align 4, !tbaa !50
  %28 = fmul float %26, %27
  %29 = getelementptr inbounds nuw %struct.b2Transform, ptr %5, i32 0, i32 1
  %30 = getelementptr inbounds nuw %struct.b2Rot, ptr %29, i32 0, i32 1
  %31 = load float, ptr %30, align 4, !tbaa !252
  %32 = load float, ptr %8, align 4, !tbaa !50
  %33 = fmul float %31, %32
  %34 = fadd float %28, %33
  store float %34, ptr %23, align 4, !tbaa !55
  %35 = getelementptr inbounds nuw %struct.b2Vec2, ptr %4, i32 0, i32 1
  %36 = getelementptr inbounds nuw %struct.b2Transform, ptr %5, i32 0, i32 1
  %37 = getelementptr inbounds nuw %struct.b2Rot, ptr %36, i32 0, i32 1
  %38 = load float, ptr %37, align 4, !tbaa !252
  %39 = fneg float %38
  %40 = load float, ptr %7, align 4, !tbaa !50
  %41 = fmul float %39, %40
  %42 = getelementptr inbounds nuw %struct.b2Transform, ptr %5, i32 0, i32 1
  %43 = getelementptr inbounds nuw %struct.b2Rot, ptr %42, i32 0, i32 0
  %44 = load float, ptr %43, align 4, !tbaa !251
  %45 = load float, ptr %8, align 4, !tbaa !50
  %46 = fmul float %44, %45
  %47 = fadd float %41, %46
  store float %47, ptr %35, align 4, !tbaa !56
  call void @llvm.lifetime.end.p0(i64 4, ptr %8) #9
  call void @llvm.lifetime.end.p0(i64 4, ptr %7) #9
  %48 = load <2 x float>, ptr %4, align 4
  ret <2 x float> %48
}

; Function Attrs: nounwind uwtable
define internal ptr @b2GetShape(ptr noundef %0, i64 %1) #0 {
  %3 = alloca %struct.b2ShapeId, align 4
  %4 = alloca ptr, align 8
  %5 = alloca i32, align 4
  %6 = alloca ptr, align 8
  store i64 %1, ptr %3, align 4
  store ptr %0, ptr %4, align 8, !tbaa !26
  call void @llvm.lifetime.start.p0(i64 4, ptr %5) #9
  %7 = getelementptr inbounds nuw %struct.b2ShapeId, ptr %3, i32 0, i32 0
  %8 = load i32, ptr %7, align 4, !tbaa !28
  %9 = sub nsw i32 %8, 1
  store i32 %9, ptr %5, align 4, !tbaa !3
  call void @llvm.lifetime.start.p0(i64 8, ptr %6) #9
  %10 = load ptr, ptr %4, align 8, !tbaa !26
  %11 = getelementptr inbounds nuw %struct.b2World, ptr %10, i32 0, i32 15
  %12 = load i32, ptr %5, align 4, !tbaa !3
  %13 = call ptr @b2ShapeArray_Get(ptr noundef %11, i32 noundef %12)
  store ptr %13, ptr %6, align 8, !tbaa !34
  %14 = load ptr, ptr %6, align 8, !tbaa !34
  call void @llvm.lifetime.end.p0(i64 8, ptr %6) #9
  call void @llvm.lifetime.end.p0(i64 4, ptr %5) #9
  ret ptr %14
}

; Function Attrs: nounwind uwtable
define zeroext i1 @b2Shape_TestPoint(i64 %0, <2 x float> %1) #3 {
  %3 = alloca i1, align 1
  %4 = alloca %struct.b2ShapeId, align 4
  %5 = alloca %struct.b2Vec2, align 4
  %6 = alloca ptr, align 8
  %7 = alloca ptr, align 8
  %8 = alloca %struct.b2Transform, align 4
  %9 = alloca %struct.b2Vec2, align 4
  %10 = alloca i32, align 4
  store i64 %0, ptr %4, align 4
  store <2 x float> %1, ptr %5, align 4
  call void @llvm.lifetime.start.p0(i64 8, ptr %6) #9
  %11 = getelementptr inbounds nuw %struct.b2ShapeId, ptr %4, i32 0, i32 1
  %12 = load i16, ptr %11, align 4, !tbaa !30
  %13 = zext i16 %12 to i32
  %14 = call ptr @b2GetWorld(i32 noundef %13)
  store ptr %14, ptr %6, align 8, !tbaa !26
  call void @llvm.lifetime.start.p0(i64 8, ptr %7) #9
  %15 = load ptr, ptr %6, align 8, !tbaa !26
  %16 = load i64, ptr %4, align 4
  %17 = call ptr @b2GetShape(ptr noundef %15, i64 %16)
  store ptr %17, ptr %7, align 8, !tbaa !34
  call void @llvm.lifetime.start.p0(i64 16, ptr %8) #9
  %18 = load ptr, ptr %6, align 8, !tbaa !26
  %19 = load ptr, ptr %7, align 8, !tbaa !34
  %20 = getelementptr inbounds nuw %struct.b2Shape, ptr %19, i32 0, i32 1
  %21 = load i32, ptr %20, align 4, !tbaa !64
  %22 = call { <2 x float>, <2 x float> } @b2GetBodyTransform(ptr noundef %18, i32 noundef %21)
  %23 = getelementptr inbounds nuw { <2 x float>, <2 x float> }, ptr %8, i32 0, i32 0
  %24 = extractvalue { <2 x float>, <2 x float> } %22, 0
  store <2 x float> %24, ptr %23, align 4
  %25 = getelementptr inbounds nuw { <2 x float>, <2 x float> }, ptr %8, i32 0, i32 1
  %26 = extractvalue { <2 x float>, <2 x float> } %22, 1
  store <2 x float> %26, ptr %25, align 4
  call void @llvm.lifetime.start.p0(i64 8, ptr %9) #9
  %27 = getelementptr inbounds nuw { <2 x float>, <2 x float> }, ptr %8, i32 0, i32 0
  %28 = load <2 x float>, ptr %27, align 4
  %29 = getelementptr inbounds nuw { <2 x float>, <2 x float> }, ptr %8, i32 0, i32 1
  %30 = load <2 x float>, ptr %29, align 4
  %31 = load <2 x float>, ptr %5, align 4
  %32 = call <2 x float> @b2InvTransformPoint(<2 x float> %28, <2 x float> %30, <2 x float> %31)
  store <2 x float> %32, ptr %9, align 4
  %33 = load ptr, ptr %7, align 8, !tbaa !34
  %34 = getelementptr inbounds nuw %struct.b2Shape, ptr %33, i32 0, i32 5
  %35 = load i32, ptr %34, align 4, !tbaa !201
  switch i32 %35, label %51 [
    i32 1, label %36
    i32 0, label %41
    i32 3, label %46
  ]

36:                                               ; preds = %2
  %37 = load ptr, ptr %7, align 8, !tbaa !34
  %38 = getelementptr inbounds nuw %struct.b2Shape, ptr %37, i32 0, i32 19
  %39 = load <2 x float>, ptr %9, align 4
  %40 = call zeroext i1 @b2PointInCapsule(<2 x float> %39, ptr noundef %38)
  store i1 %40, ptr %3, align 1
  store i32 1, ptr %10, align 4
  br label %52

41:                                               ; preds = %2
  %42 = load ptr, ptr %7, align 8, !tbaa !34
  %43 = getelementptr inbounds nuw %struct.b2Shape, ptr %42, i32 0, i32 19
  %44 = load <2 x float>, ptr %9, align 4
  %45 = call zeroext i1 @b2PointInCircle(<2 x float> %44, ptr noundef %43)
  store i1 %45, ptr %3, align 1
  store i32 1, ptr %10, align 4
  br label %52

46:                                               ; preds = %2
  %47 = load ptr, ptr %7, align 8, !tbaa !34
  %48 = getelementptr inbounds nuw %struct.b2Shape, ptr %47, i32 0, i32 19
  %49 = load <2 x float>, ptr %9, align 4
  %50 = call zeroext i1 @b2PointInPolygon(<2 x float> %49, ptr noundef %48)
  store i1 %50, ptr %3, align 1
  store i32 1, ptr %10, align 4
  br label %52

51:                                               ; preds = %2
  store i1 false, ptr %3, align 1
  store i32 1, ptr %10, align 4
  br label %52

52:                                               ; preds = %51, %46, %41, %36
  call void @llvm.lifetime.end.p0(i64 8, ptr %9) #9
  call void @llvm.lifetime.end.p0(i64 16, ptr %8) #9
  call void @llvm.lifetime.end.p0(i64 8, ptr %7) #9
  call void @llvm.lifetime.end.p0(i64 8, ptr %6) #9
  %53 = load i1, ptr %3, align 1
  ret i1 %53
}