; Function Attrs: nounwind uwtable
define zeroext i1 @b2Shape_TestPoint(i64 %0, <2 x float> %1) local_unnamed_addr #3 {
  %.sroa.2.0.extract.shift = lshr i64 %0, 32
  %3 = trunc nuw i64 %.sroa.2.0.extract.shift to i32
  %4 = and i32 %3, 65535
  %5 = tail call ptr @b2GetWorld(i32 noundef %4) #10
  %6 = getelementptr i8, ptr %5, i64 1256
  %.val = load ptr, ptr %6, align 8, !tbaa !14
  %7 = shl i64 %0, 32
  %sext.i = add i64 %7, -4294967296
  %8 = ashr exact i64 %sext.i, 32
  %9 = getelementptr inbounds %struct.b2Shape, ptr %.val, i64 %8
  %10 = getelementptr inbounds nuw i8, ptr %9, i64 4
  %11 = load i32, ptr %10, align 4, !tbaa !34
  %12 = tail call { <2 x float>, <2 x float> } @b2GetBodyTransform(ptr noundef %5, i32 noundef %11) #10
  %13 = extractvalue { <2 x float>, <2 x float> } %12, 0
  %14 = extractvalue { <2 x float>, <2 x float> } %12, 1
  %15 = fsub <2 x float> %1, %13
  %16 = extractelement <2 x float> %15, i64 0
  %17 = fsub <2 x float> %1, %13
  %18 = extractelement <2 x float> %17, i64 1
  %.sroa.3.8.vec.extract.i = extractelement <2 x float> %14, i64 0
  %19 = fmul <2 x float> %14, %15
  %20 = extractelement <2 x float> %19, i64 0
  %.sroa.3.12.vec.extract.i = extractelement <2 x float> %14, i64 1
  %21 = fmul float %.sroa.3.12.vec.extract.i, %18
  %22 = fadd float %20, %21
  %.sroa.09.0.vec.insert.i = insertelement <2 x float> poison, float %22, i64 0
  %23 = fmul float %.sroa.3.8.vec.extract.i, %18
  %24 = fmul float %.sroa.3.12.vec.extract.i, %16
  %25 = fsub float %23, %24
  %.sroa.09.4.vec.insert.i = insertelement <2 x float> %.sroa.09.0.vec.insert.i, float %25, i64 1
  %26 = getelementptr inbounds nuw i8, ptr %9, i64 20
  %27 = load i32, ptr %26, align 4, !tbaa !171
  switch i32 %27, label %37 [
    i32 1, label %28
    i32 0, label %31
    i32 3, label %34
  ]

28:                                               ; preds = %2
  %29 = getelementptr inbounds nuw i8, ptr %9, i64 132
  %30 = tail call zeroext i1 @b2PointInCapsule(<2 x float> %.sroa.09.4.vec.insert.i, ptr noundef nonnull %29) #10
  br label %37

31:                                               ; preds = %2
  %32 = getelementptr inbounds nuw i8, ptr %9, i64 132
  %33 = tail call zeroext i1 @b2PointInCircle(<2 x float> %.sroa.09.4.vec.insert.i, ptr noundef nonnull %32) #10
  br label %37

34:                                               ; preds = %2
  %35 = getelementptr inbounds nuw i8, ptr %9, i64 132
  %36 = tail call zeroext i1 @b2PointInPolygon(<2 x float> %.sroa.09.4.vec.insert.i, ptr noundef nonnull %35) #10
  br label %37

37:                                               ; preds = %2, %34, %31, %28
  %.0 = phi i1 [ %36, %34 ], [ %33, %31 ], [ %30, %28 ], [ false, %2 ]
  ret i1 %.0
}